
t25_sat.elf:     file format elf32-avr

Sections:
Idx Name          Size      VMA       LMA       File off  Algn
  0 .text         000003ae  00000000  00000000  00000094  2**1
                  CONTENTS, ALLOC, LOAD, READONLY, CODE
  1 .data         0000004c  00800060  000003ae  00000442  2**0
                  CONTENTS, ALLOC, LOAD, DATA
  2 .bss          00000002  008000ac  008000ac  0000048e  2**0
                  ALLOC
  3 .comment      00000030  00000000  00000000  0000048e  2**0
                  CONTENTS, READONLY
  4 .note.gnu.avr.deviceinfo 0000003c  00000000  00000000  000004c0  2**2
                  CONTENTS, READONLY
  5 .debug_info   00000420  00000000  00000000  000004fc  2**0
                  CONTENTS, READONLY, DEBUGGING
  6 .debug_abbrev 000003e8  00000000  00000000  0000091c  2**0
                  CONTENTS, READONLY, DEBUGGING
  7 .debug_line   000000e8  00000000  00000000  00000d04  2**0
                  CONTENTS, READONLY, DEBUGGING
  8 .debug_str    0000016a  00000000  00000000  00000dec  2**0
                  CONTENTS, READONLY, DEBUGGING

Disassembly of section .text:

00000000 <__vectors>:
   0:	0e c0       	rjmp	.+28     	; 0x1e <__ctors_end>
   2:	26 c0       	rjmp	.+76     	; 0x50 <__bad_interrupt>
   4:	25 c0       	rjmp	.+74     	; 0x50 <__bad_interrupt>
   6:	24 c0       	rjmp	.+72     	; 0x50 <__bad_interrupt>
   8:	23 c0       	rjmp	.+70     	; 0x50 <__bad_interrupt>
   a:	22 c0       	rjmp	.+68     	; 0x50 <__bad_interrupt>
   c:	21 c0       	rjmp	.+66     	; 0x50 <__bad_interrupt>
   e:	20 c0       	rjmp	.+64     	; 0x50 <__bad_interrupt>
  10:	1f c0       	rjmp	.+62     	; 0x50 <__bad_interrupt>
  12:	1e c0       	rjmp	.+60     	; 0x50 <__bad_interrupt>
  14:	1d c0       	rjmp	.+58     	; 0x50 <__bad_interrupt>
  16:	1c c0       	rjmp	.+56     	; 0x50 <__bad_interrupt>
  18:	35 c0       	rjmp	.+106    	; 0x84 <__vector_12>
  1a:	1a c0       	rjmp	.+52     	; 0x50 <__bad_interrupt>
  1c:	19 c0       	rjmp	.+50     	; 0x50 <__bad_interrupt>

0000001e <__ctors_end>:
  1e:	11 24       	eor	r1, r1
  20:	1f be       	out	0x3f, r1	; 63
  22:	cf ed       	ldi	r28, 0xDF	; 223
  24:	cd bf       	out	0x3d, r28	; 61

00000026 <__do_copy_data>:
  26:	10 e0       	ldi	r17, 0x00	; 0
  28:	a0 e6       	ldi	r26, 0x60	; 96
  2a:	b0 e0       	ldi	r27, 0x00	; 0
  2c:	ee ea       	ldi	r30, 0xAE	; 174
  2e:	f3 e0       	ldi	r31, 0x03	; 3
  30:	02 c0       	rjmp	.+4      	; 0x36 <__do_copy_data+0x10>
  32:	05 90       	lpm	r0, Z+
  34:	0d 92       	st	X+, r0
  36:	ac 3a       	cpi	r26, 0xAC	; 172
  38:	b1 07       	cpc	r27, r17
  3a:	d9 f7       	brne	.-10     	; 0x32 <__do_copy_data+0xc>

0000003c <__do_clear_bss>:
  3c:	20 e0       	ldi	r18, 0x00	; 0
  3e:	ac ea       	ldi	r26, 0xAC	; 172
  40:	b0 e0       	ldi	r27, 0x00	; 0
  42:	01 c0       	rjmp	.+2      	; 0x46 <.do_clear_bss_start>

00000044 <.do_clear_bss_loop>:
  44:	1d 92       	st	X+, r1

00000046 <.do_clear_bss_start>:
  46:	ae 3a       	cpi	r26, 0xAE	; 174
  48:	b2 07       	cpc	r27, r18
  4a:	e1 f7       	brne	.-8      	; 0x44 <.do_clear_bss_loop>
  4c:	52 d1       	rcall	.+676    	; 0x2f2 <main>
  4e:	ad c1       	rjmp	.+858    	; 0x3aa <_exit>

00000050 <__bad_interrupt>:
  50:	d7 cf       	rjmp	.-82     	; 0x0 <__vectors>

00000052 <setup_watchdog>:
  52:	f8 94       	cli
  54:	9c 01       	movw	r18, r24
  56:	0a 97       	sbiw	r24, 0x0a	; 10
  58:	14 f0       	brlt	.+4      	; 0x5e <setup_watchdog+0xc>
  5a:	29 e0       	ldi	r18, 0x09	; 9
  5c:	30 e0       	ldi	r19, 0x00	; 0
  5e:	82 2f       	mov	r24, r18
  60:	87 70       	andi	r24, 0x07	; 7
  62:	28 30       	cpi	r18, 0x08	; 8
  64:	31 05       	cpc	r19, r1
  66:	0c f0       	brlt	.+2      	; 0x6a <setup_watchdog+0x18>
  68:	80 62       	ori	r24, 0x20	; 32
  6a:	80 61       	ori	r24, 0x10	; 16
  6c:	94 b7       	in	r25, 0x34	; 52
  6e:	97 7f       	andi	r25, 0xF7	; 247
  70:	94 bf       	out	0x34, r25	; 52
  72:	91 b5       	in	r25, 0x21	; 33
  74:	98 61       	ori	r25, 0x18	; 24
  76:	91 bd       	out	0x21, r25	; 33
  78:	81 bd       	out	0x21, r24	; 33
  7a:	81 b5       	in	r24, 0x21	; 33
  7c:	80 64       	ori	r24, 0x40	; 64
  7e:	81 bd       	out	0x21, r24	; 33
  80:	78 94       	sei
  82:	08 95       	ret

00000084 <__vector_12>:
  84:	1f 92       	push	r1
  86:	0f 92       	push	r0
  88:	0f b6       	in	r0, 0x3f	; 63
  8a:	0f 92       	push	r0
  8c:	11 24       	eor	r1, r1
  8e:	8f 93       	push	r24
  90:	81 e0       	ldi	r24, 0x01	; 1
  92:	80 93 60 00 	sts	0x0060, r24	; 0x800060 <__DATA_REGION_ORIGIN__>
  96:	8f 91       	pop	r24
  98:	0f 90       	pop	r0
  9a:	0f be       	out	0x3f, r0	; 63
  9c:	0f 90       	pop	r0
  9e:	1f 90       	pop	r1
  a0:	18 95       	reti

000000a2 <analogWrite>:
  a2:	81 11       	cpse	r24, r1
  a4:	10 c0       	rjmp	.+32     	; 0xc6 <analogWrite+0x24>
  a6:	b8 9a       	sbi	0x17, 0	; 23
  a8:	61 15       	cp	r22, r1
  aa:	71 05       	cpc	r23, r1
  ac:	11 f4       	brne	.+4      	; 0xb2 <analogWrite+0x10>
  ae:	c0 98       	cbi	0x18, 0	; 24
  b0:	08 95       	ret
  b2:	6f 3f       	cpi	r22, 0xFF	; 255
  b4:	71 05       	cpc	r23, r1
  b6:	11 f4       	brne	.+4      	; 0xbc <analogWrite+0x1a>
  b8:	c0 9a       	sbi	0x18, 0	; 24
  ba:	08 95       	ret
  bc:	8a b5       	in	r24, 0x2a	; 42
  be:	80 68       	ori	r24, 0x80	; 128
  c0:	8a bd       	out	0x2a, r24	; 42
  c2:	69 bd       	out	0x29, r22	; 41
  c4:	08 95       	ret
  c6:	81 30       	cpi	r24, 0x01	; 1
  c8:	79 f4       	brne	.+30     	; 0xe8 <__stack+0x9>
  ca:	b9 9a       	sbi	0x17, 1	; 23
  cc:	61 15       	cp	r22, r1
  ce:	71 05       	cpc	r23, r1
  d0:	11 f4       	brne	.+4      	; 0xd6 <analogWrite+0x34>
  d2:	c1 98       	cbi	0x18, 1	; 24
  d4:	08 95       	ret
  d6:	6f 3f       	cpi	r22, 0xFF	; 255
  d8:	71 05       	cpc	r23, r1
  da:	11 f4       	brne	.+4      	; 0xe0 <__stack+0x1>
  dc:	c1 9a       	sbi	0x18, 1	; 24
  de:	08 95       	ret
  e0:	8a b5       	in	r24, 0x2a	; 42
  e2:	80 62       	ori	r24, 0x20	; 32
  e4:	8a bd       	out	0x2a, r24	; 42
  e6:	68 bd       	out	0x28, r22	; 40
  e8:	08 95       	ret

000000ea <pattern_1>:
  ea:	1f 93       	push	r17
  ec:	cf 93       	push	r28
  ee:	df 93       	push	r29
  f0:	18 2f       	mov	r17, r24
  f2:	cf e9       	ldi	r28, 0x9F	; 159
  f4:	d0 e0       	ldi	r29, 0x00	; 0
  f6:	69 91       	ld	r22, Y+
  f8:	79 91       	ld	r23, Y+
  fa:	81 2f       	mov	r24, r17
  fc:	d2 df       	rcall	.-92     	; 0xa2 <analogWrite>
  fe:	8b e4       	ldi	r24, 0x4B	; 75
 100:	9d e1       	ldi	r25, 0x1D	; 29
 102:	01 97       	sbiw	r24, 0x01	; 1
 104:	f1 f7       	brne	.-4      	; 0x102 <pattern_1+0x18>
 106:	00 c0       	rjmp	.+0      	; 0x108 <pattern_1+0x1e>
 108:	00 00       	nop
 10a:	90 e0       	ldi	r25, 0x00	; 0
 10c:	cb 3a       	cpi	r28, 0xAB	; 171
 10e:	d9 07       	cpc	r29, r25
 110:	91 f7       	brne	.-28     	; 0xf6 <pattern_1+0xc>
 112:	6f ef       	ldi	r22, 0xFF	; 255
 114:	70 e0       	ldi	r23, 0x00	; 0
 116:	81 2f       	mov	r24, r17
 118:	c4 df       	rcall	.-120    	; 0xa2 <analogWrite>
 11a:	87 ea       	ldi	r24, 0xA7	; 167
 11c:	91 e6       	ldi	r25, 0x61	; 97
 11e:	01 97       	sbiw	r24, 0x01	; 1
 120:	f1 f7       	brne	.-4      	; 0x11e <pattern_1+0x34>
 122:	00 c0       	rjmp	.+0      	; 0x124 <pattern_1+0x3a>
 124:	00 00       	nop
 126:	cd e7       	ldi	r28, 0x7D	; 125
 128:	d0 e0       	ldi	r29, 0x00	; 0
 12a:	69 91       	ld	r22, Y+
 12c:	79 91       	ld	r23, Y+
 12e:	81 2f       	mov	r24, r17
 130:	b8 df       	rcall	.-144    	; 0xa2 <analogWrite>
 132:	8b e4       	ldi	r24, 0x4B	; 75
 134:	9d e1       	ldi	r25, 0x1D	; 29
 136:	01 97       	sbiw	r24, 0x01	; 1
 138:	f1 f7       	brne	.-4      	; 0x136 <pattern_1+0x4c>
 13a:	00 c0       	rjmp	.+0      	; 0x13c <pattern_1+0x52>
 13c:	00 00       	nop
 13e:	90 e0       	ldi	r25, 0x00	; 0
 140:	cf 39       	cpi	r28, 0x9F	; 159
 142:	d9 07       	cpc	r29, r25
 144:	91 f7       	brne	.-28     	; 0x12a <pattern_1+0x40>
 146:	df 91       	pop	r29
 148:	cf 91       	pop	r28
 14a:	1f 91       	pop	r17
 14c:	08 95       	ret

0000014e <pattern_2>:
 14e:	af 92       	push	r10
 150:	bf 92       	push	r11
 152:	cf 92       	push	r12
 154:	df 92       	push	r13
 156:	ff 92       	push	r15
 158:	0f 93       	push	r16
 15a:	1f 93       	push	r17
 15c:	cf 93       	push	r28
 15e:	df 93       	push	r29
 160:	f8 2e       	mov	r15, r24
 162:	02 e0       	ldi	r16, 0x02	; 2
 164:	10 e0       	ldi	r17, 0x00	; 0
 166:	8b ea       	ldi	r24, 0xAB	; 171
 168:	c8 2e       	mov	r12, r24
 16a:	80 e0       	ldi	r24, 0x00	; 0
 16c:	d8 2e       	mov	r13, r24
 16e:	9f e9       	ldi	r25, 0x9F	; 159
 170:	a9 2e       	mov	r10, r25
 172:	90 e0       	ldi	r25, 0x00	; 0
 174:	b9 2e       	mov	r11, r25
 176:	cf e9       	ldi	r28, 0x9F	; 159
 178:	d0 e0       	ldi	r29, 0x00	; 0
 17a:	69 91       	ld	r22, Y+
 17c:	79 91       	ld	r23, Y+
 17e:	8f 2d       	mov	r24, r15
 180:	90 df       	rcall	.-224    	; 0xa2 <analogWrite>
 182:	87 e9       	ldi	r24, 0x97	; 151
 184:	9a e3       	ldi	r25, 0x3A	; 58
 186:	01 97       	sbiw	r24, 0x01	; 1
 188:	f1 f7       	brne	.-4      	; 0x186 <pattern_2+0x38>
 18a:	00 c0       	rjmp	.+0      	; 0x18c <pattern_2+0x3e>
 18c:	00 00       	nop
 18e:	cc 16       	cp	r12, r28
 190:	dd 06       	cpc	r13, r29
 192:	99 f7       	brne	.-26     	; 0x17a <pattern_2+0x2c>
 194:	cd e7       	ldi	r28, 0x7D	; 125
 196:	d0 e0       	ldi	r29, 0x00	; 0
 198:	69 91       	ld	r22, Y+
 19a:	79 91       	ld	r23, Y+
 19c:	8f 2d       	mov	r24, r15
 19e:	81 df       	rcall	.-254    	; 0xa2 <analogWrite>
 1a0:	83 ec       	ldi	r24, 0xC3	; 195
 1a2:	99 e0       	ldi	r25, 0x09	; 9
 1a4:	01 97       	sbiw	r24, 0x01	; 1
 1a6:	f1 f7       	brne	.-4      	; 0x1a4 <pattern_2+0x56>
 1a8:	00 c0       	rjmp	.+0      	; 0x1aa <pattern_2+0x5c>
 1aa:	00 00       	nop
 1ac:	ac 16       	cp	r10, r28
 1ae:	bd 06       	cpc	r11, r29
 1b0:	99 f7       	brne	.-26     	; 0x198 <pattern_2+0x4a>
 1b2:	01 50       	subi	r16, 0x01	; 1
 1b4:	11 09       	sbc	r17, r1
 1b6:	f9 f6       	brne	.-66     	; 0x176 <pattern_2+0x28>
 1b8:	df 91       	pop	r29
 1ba:	cf 91       	pop	r28
 1bc:	1f 91       	pop	r17
 1be:	0f 91       	pop	r16
 1c0:	ff 90       	pop	r15
 1c2:	df 90       	pop	r13
 1c4:	cf 90       	pop	r12
 1c6:	bf 90       	pop	r11
 1c8:	af 90       	pop	r10
 1ca:	08 95       	ret

000001cc <pattern_3>:
 1cc:	af 92       	push	r10
 1ce:	bf 92       	push	r11
 1d0:	cf 92       	push	r12
 1d2:	df 92       	push	r13
 1d4:	ff 92       	push	r15
 1d6:	0f 93       	push	r16
 1d8:	1f 93       	push	r17
 1da:	cf 93       	push	r28
 1dc:	df 93       	push	r29
 1de:	f8 2e       	mov	r15, r24
 1e0:	2f e9       	ldi	r18, 0x9F	; 159
 1e2:	c2 2e       	mov	r12, r18
 1e4:	20 e0       	ldi	r18, 0x00	; 0
 1e6:	d2 2e       	mov	r13, r18
 1e8:	0b ea       	ldi	r16, 0xAB	; 171
 1ea:	10 e0       	ldi	r17, 0x00	; 0
 1ec:	e6 01       	movw	r28, r12
 1ee:	69 91       	ld	r22, Y+
 1f0:	79 91       	ld	r23, Y+
 1f2:	8f 2d       	mov	r24, r15
 1f4:	56 df       	rcall	.-340    	; 0xa2 <analogWrite>
 1f6:	8b e4       	ldi	r24, 0x4B	; 75
 1f8:	9d e1       	ldi	r25, 0x1D	; 29
 1fa:	01 97       	sbiw	r24, 0x01	; 1
 1fc:	f1 f7       	brne	.-4      	; 0x1fa <pattern_3+0x2e>
 1fe:	00 c0       	rjmp	.+0      	; 0x200 <pattern_3+0x34>
 200:	00 00       	nop
 202:	0c 17       	cp	r16, r28
 204:	1d 07       	cpc	r17, r29
 206:	99 f7       	brne	.-26     	; 0x1ee <pattern_3+0x22>
 208:	c3 e6       	ldi	r28, 0x63	; 99
 20a:	d0 e0       	ldi	r29, 0x00	; 0
 20c:	0d e7       	ldi	r16, 0x7D	; 125
 20e:	10 e0       	ldi	r17, 0x00	; 0
 210:	5e 01       	movw	r10, r28
 212:	f5 01       	movw	r30, r10
 214:	61 91       	ld	r22, Z+
 216:	71 91       	ld	r23, Z+
 218:	5f 01       	movw	r10, r30
 21a:	8f 2d       	mov	r24, r15
 21c:	42 df       	rcall	.-380    	; 0xa2 <analogWrite>
 21e:	8d e2       	ldi	r24, 0x2D	; 45
 220:	92 e2       	ldi	r25, 0x22	; 34
 222:	01 97       	sbiw	r24, 0x01	; 1
 224:	f1 f7       	brne	.-4      	; 0x222 <pattern_3+0x56>
 226:	00 c0       	rjmp	.+0      	; 0x228 <pattern_3+0x5c>
 228:	00 00       	nop
 22a:	0a 15       	cp	r16, r10
 22c:	1b 05       	cpc	r17, r11
 22e:	89 f7       	brne	.-30     	; 0x212 <pattern_3+0x46>
 230:	f6 01       	movw	r30, r12
 232:	61 91       	ld	r22, Z+
 234:	71 91       	ld	r23, Z+
 236:	6f 01       	movw	r12, r30
 238:	77 ff       	sbrs	r23, 7
 23a:	02 c0       	rjmp	.+4      	; 0x240 <pattern_3+0x74>
 23c:	6f 5f       	subi	r22, 0xFF	; 255
 23e:	7f 4f       	sbci	r23, 0xFF	; 255
 240:	75 95       	asr	r23
 242:	67 95       	ror	r22
 244:	8f 2d       	mov	r24, r15
 246:	2d df       	rcall	.-422    	; 0xa2 <analogWrite>
 248:	87 e8       	ldi	r24, 0x87	; 135
 24a:	93 e1       	ldi	r25, 0x13	; 19
 24c:	01 97       	sbiw	r24, 0x01	; 1
 24e:	f1 f7       	brne	.-4      	; 0x24c <pattern_3+0x80>
 250:	00 c0       	rjmp	.+0      	; 0x252 <pattern_3+0x86>
 252:	00 00       	nop
 254:	9b ea       	ldi	r25, 0xAB	; 171
 256:	c9 16       	cp	r12, r25
 258:	90 e0       	ldi	r25, 0x00	; 0
 25a:	d9 06       	cpc	r13, r25
 25c:	49 f7       	brne	.-46     	; 0x230 <pattern_3+0x64>
 25e:	69 91       	ld	r22, Y+
 260:	79 91       	ld	r23, Y+
 262:	77 ff       	sbrs	r23, 7
 264:	02 c0       	rjmp	.+4      	; 0x26a <pattern_3+0x9e>
 266:	6f 5f       	subi	r22, 0xFF	; 255
 268:	7f 4f       	sbci	r23, 0xFF	; 255
 26a:	75 95       	asr	r23
 26c:	67 95       	ror	r22
 26e:	8f 2d       	mov	r24, r15
 270:	18 df       	rcall	.-464    	; 0xa2 <analogWrite>
 272:	e9 e6       	ldi	r30, 0x69	; 105
 274:	f8 e1       	ldi	r31, 0x18	; 24
 276:	31 97       	sbiw	r30, 0x01	; 1
 278:	f1 f7       	brne	.-4      	; 0x276 <pattern_3+0xaa>
 27a:	00 c0       	rjmp	.+0      	; 0x27c <pattern_3+0xb0>
 27c:	00 00       	nop
 27e:	0c 17       	cp	r16, r28
 280:	1d 07       	cpc	r17, r29
 282:	69 f7       	brne	.-38     	; 0x25e <pattern_3+0x92>
 284:	df 91       	pop	r29
 286:	cf 91       	pop	r28
 288:	1f 91       	pop	r17
 28a:	0f 91       	pop	r16
 28c:	ff 90       	pop	r15
 28e:	df 90       	pop	r13
 290:	cf 90       	pop	r12
 292:	bf 90       	pop	r11
 294:	af 90       	pop	r10
 296:	08 95       	ret

00000298 <flashLed>:
 298:	81 30       	cpi	r24, 0x01	; 1
 29a:	91 05       	cpc	r25, r1
 29c:	91 f0       	breq	.+36     	; 0x2c2 <flashLed+0x2a>
 29e:	1c f4       	brge	.+6      	; 0x2a6 <flashLed+0xe>
 2a0:	89 2b       	or	r24, r25
 2a2:	e1 f0       	breq	.+56     	; 0x2dc <flashLed+0x44>
 2a4:	23 c0       	rjmp	.+70     	; 0x2ec <flashLed+0x54>
 2a6:	82 30       	cpi	r24, 0x02	; 2
 2a8:	91 05       	cpc	r25, r1
 2aa:	99 f0       	breq	.+38     	; 0x2d2 <flashLed+0x3a>
 2ac:	03 97       	sbiw	r24, 0x03	; 3
 2ae:	f1 f4       	brne	.+60     	; 0x2ec <flashLed+0x54>
 2b0:	b9 9a       	sbi	0x17, 1	; 23
 2b2:	81 e0       	ldi	r24, 0x01	; 1
 2b4:	90 e0       	ldi	r25, 0x00	; 0
 2b6:	19 df       	rcall	.-462    	; 0xea <pattern_1>
 2b8:	60 e0       	ldi	r22, 0x00	; 0
 2ba:	70 e0       	ldi	r23, 0x00	; 0
 2bc:	81 e0       	ldi	r24, 0x01	; 1
 2be:	f1 de       	rcall	.-542    	; 0xa2 <analogWrite>
 2c0:	0d c0       	rjmp	.+26     	; 0x2dc <flashLed+0x44>
 2c2:	b9 9a       	sbi	0x17, 1	; 23
 2c4:	81 e0       	ldi	r24, 0x01	; 1
 2c6:	90 e0       	ldi	r25, 0x00	; 0
 2c8:	42 df       	rcall	.-380    	; 0x14e <pattern_2>
 2ca:	60 e0       	ldi	r22, 0x00	; 0
 2cc:	70 e0       	ldi	r23, 0x00	; 0
 2ce:	81 e0       	ldi	r24, 0x01	; 1
 2d0:	0c c0       	rjmp	.+24     	; 0x2ea <flashLed+0x52>
 2d2:	b8 9a       	sbi	0x17, 0	; 23
 2d4:	80 e0       	ldi	r24, 0x00	; 0
 2d6:	90 e0       	ldi	r25, 0x00	; 0
 2d8:	79 df       	rcall	.-270    	; 0x1cc <pattern_3>
 2da:	04 c0       	rjmp	.+8      	; 0x2e4 <flashLed+0x4c>
 2dc:	b8 9a       	sbi	0x17, 0	; 23
 2de:	80 e0       	ldi	r24, 0x00	; 0
 2e0:	90 e0       	ldi	r25, 0x00	; 0
 2e2:	03 df       	rcall	.-506    	; 0xea <pattern_1>
 2e4:	60 e0       	ldi	r22, 0x00	; 0
 2e6:	70 e0       	ldi	r23, 0x00	; 0
 2e8:	80 e0       	ldi	r24, 0x00	; 0
 2ea:	db de       	rcall	.-586    	; 0xa2 <analogWrite>
 2ec:	b8 98       	cbi	0x17, 0	; 23
 2ee:	b9 98       	cbi	0x17, 1	; 23
 2f0:	08 95       	ret

000002f2 <main>:
 2f2:	b8 9a       	sbi	0x17, 0	; 23
 2f4:	b9 9a       	sbi	0x17, 1	; 23
 2f6:	ba 98       	cbi	0x17, 2	; 23
 2f8:	bb 98       	cbi	0x17, 3	; 23
 2fa:	bc 98       	cbi	0x17, 4	; 23
 2fc:	c0 98       	cbi	0x18, 0	; 24
 2fe:	c1 98       	cbi	0x18, 1	; 24
 300:	c2 9a       	sbi	0x18, 2	; 24
 302:	c4 9a       	sbi	0x18, 4	; 24
 304:	8a b5       	in	r24, 0x2a	; 42
 306:	81 60       	ori	r24, 0x01	; 1
 308:	8a bd       	out	0x2a, r24	; 42
 30a:	8a b5       	in	r24, 0x2a	; 42
 30c:	82 60       	ori	r24, 0x02	; 2
 30e:	8a bd       	out	0x2a, r24	; 42
 310:	83 b7       	in	r24, 0x33	; 51
 312:	81 60       	ori	r24, 0x01	; 1
 314:	83 bf       	out	0x33, r24	; 51
 316:	83 b7       	in	r24, 0x33	; 51
 318:	82 60       	ori	r24, 0x02	; 2
 31a:	83 bf       	out	0x33, r24	; 51
 31c:	89 e0       	ldi	r24, 0x09	; 9
 31e:	90 e0       	ldi	r25, 0x00	; 0
 320:	98 de       	rcall	.-720    	; 0x52 <setup_watchdog>
 322:	c8 e0       	ldi	r28, 0x08	; 8
 324:	d0 e0       	ldi	r29, 0x00	; 0
 326:	09 e0       	ldi	r16, 0x09	; 9
 328:	10 e0       	ldi	r17, 0x00	; 0
 32a:	80 91 60 00 	lds	r24, 0x0060	; 0x800060 <__DATA_REGION_ORIGIN__>
 32e:	88 23       	and	r24, r24
 330:	e1 f3       	breq	.-8      	; 0x32a <main+0x38>
 332:	10 92 60 00 	sts	0x0060, r1	; 0x800060 <__DATA_REGION_ORIGIN__>
 336:	b3 9b       	sbis	0x16, 3	; 22
 338:	05 c0       	rjmp	.+10     	; 0x344 <main+0x52>
 33a:	10 93 62 00 	sts	0x0062, r17	; 0x800062 <wdt_delay+0x1>
 33e:	00 93 61 00 	sts	0x0061, r16	; 0x800061 <wdt_delay>
 342:	1a c0       	rjmp	.+52     	; 0x378 <main+0x86>
 344:	d0 93 62 00 	sts	0x0062, r29	; 0x800062 <wdt_delay+0x1>
 348:	c0 93 61 00 	sts	0x0061, r28	; 0x800061 <wdt_delay>
 34c:	80 91 ac 00 	lds	r24, 0x00AC	; 0x8000ac <__data_end>
 350:	90 91 ad 00 	lds	r25, 0x00AD	; 0x8000ad <__data_end+0x1>
 354:	a1 df       	rcall	.-190    	; 0x298 <flashLed>
 356:	80 91 ac 00 	lds	r24, 0x00AC	; 0x8000ac <__data_end>
 35a:	90 91 ad 00 	lds	r25, 0x00AD	; 0x8000ad <__data_end+0x1>
 35e:	01 96       	adiw	r24, 0x01	; 1
 360:	84 30       	cpi	r24, 0x04	; 4
 362:	91 05       	cpc	r25, r1
 364:	2c f4       	brge	.+10     	; 0x370 <main+0x7e>
 366:	90 93 ad 00 	sts	0x00AD, r25	; 0x8000ad <__data_end+0x1>
 36a:	80 93 ac 00 	sts	0x00AC, r24	; 0x8000ac <__data_end>
 36e:	04 c0       	rjmp	.+8      	; 0x378 <main+0x86>
 370:	10 92 ad 00 	sts	0x00AD, r1	; 0x8000ad <__data_end+0x1>
 374:	10 92 ac 00 	sts	0x00AC, r1	; 0x8000ac <__data_end>
 378:	80 91 61 00 	lds	r24, 0x0061	; 0x800061 <wdt_delay>
 37c:	90 91 62 00 	lds	r25, 0x0062	; 0x800062 <wdt_delay+0x1>
 380:	68 de       	rcall	.-816    	; 0x52 <setup_watchdog>
 382:	37 98       	cbi	0x06, 7	; 6
 384:	85 b7       	in	r24, 0x35	; 53
 386:	87 7e       	andi	r24, 0xE7	; 231
 388:	80 61       	ori	r24, 0x10	; 16
 38a:	85 bf       	out	0x35, r24	; 53
 38c:	85 b7       	in	r24, 0x35	; 53
 38e:	80 62       	ori	r24, 0x20	; 32
 390:	85 bf       	out	0x35, r24	; 53
 392:	85 b7       	in	r24, 0x35	; 53
 394:	80 62       	ori	r24, 0x20	; 32
 396:	85 bf       	out	0x35, r24	; 53
 398:	88 95       	sleep
 39a:	85 b7       	in	r24, 0x35	; 53
 39c:	8f 7d       	andi	r24, 0xDF	; 223
 39e:	85 bf       	out	0x35, r24	; 53
 3a0:	85 b7       	in	r24, 0x35	; 53
 3a2:	8f 7d       	andi	r24, 0xDF	; 223
 3a4:	85 bf       	out	0x35, r24	; 53
 3a6:	37 9a       	sbi	0x06, 7	; 6
 3a8:	c0 cf       	rjmp	.-128    	; 0x32a <main+0x38>

000003aa <_exit>:
 3aa:	f8 94       	cli

000003ac <__stop_program>:
 3ac:	ff cf       	rjmp	.-2      	; 0x3ac <__stop_program>
